; Function Attrs: mustprogress nofree norecurse nosync nounwind willreturn memory(argmem: write) uwtable
define void @_ZNK4LIEF5dwarf5types5Array9size_infoEv(ptr dead_on_unwind noalias writable sret(%"struct.LIEF::dwarf::types::Array::size_info_t") align 8 initializes((0, 8)) %0, ptr noundef nonnull readnone align 8 captures(none) dereferenceable(32) %1) local_unnamed_addr #1 align 2 {
  store ptr null, ptr %0, align 8, !tbaa !19
  %3 = getelementptr inbounds nuw i8, ptr %0, i64 8
  %4 = getelementptr inbounds nuw i8, ptr %0, i64 24
  store ptr %4, ptr %3, align 8, !tbaa !9
  %5 = getelementptr inbounds nuw i8, ptr %0, i64 16
  store i64 0, ptr %5, align 8, !tbaa !12
  store i8 0, ptr %4, align 8, !tbaa !15
  %6 = getelementptr inbounds nuw i8, ptr %0, i64 40
  store i64 0, ptr %6, align 8, !tbaa !118
  ret void
}